target datalayout = "e-m:e-p270:32:32-p271:32:32-p272:64:64-i64:64-i128:128-f80:128-n8:16:32:64-S128"
target triple = "x86_64-pc-linux-gnu"

; Function Attrs: mustprogress nounwind uwtable
define linkonce_odr hidden noundef i64 @_ZNK19OpenColorIO_v2_5dev6ArrayTIfE21getMaxColorComponentsEv(ptr noundef nonnull align 8 dereferenceable(48) %0) #5 comdat align 2 {
  %2 = alloca ptr, align 8
  store ptr %0, ptr %2, align 8, !tbaa !73
  ret i64 3
}

; Function Attrs: mustprogress uwtable
define hidden noundef i64 @_ZNK19OpenColorIO_v2_5dev11Lut3DOpData10Lut3DArray12getNumValuesEv(ptr noundef nonnull align 8 dereferenceable(48) %0) unnamed_addr #4 align 2 {
  %2 = alloca ptr, align 8
  %3 = alloca i64, align 8
  store ptr %0, ptr %2, align 8, !tbaa !78
  %4 = load ptr, ptr %2, align 8
  call void @llvm.lifetime.start.p0(i64 8, ptr %3) #3
  %5 = load ptr, ptr %4, align 8, !tbaa !57
  %6 = getelementptr inbounds ptr, ptr %5, i64 4
  %7 = load ptr, ptr %6, align 8
  %8 = call noundef i64 %7(ptr noundef nonnull align 8 dereferenceable(48) %4)
  %9 = load ptr, ptr %4, align 8, !tbaa !57
  %10 = getelementptr inbounds ptr, ptr %9, i64 4
  %11 = load ptr, ptr %10, align 8
  %12 = call noundef i64 %11(ptr noundef nonnull align 8 dereferenceable(48) %4)
  %13 = mul i64 %8, %12
  %14 = load ptr, ptr %4, align 8, !tbaa !57
  %15 = getelementptr inbounds ptr, ptr %14, i64 4
  %16 = load ptr, ptr %15, align 8
  %17 = call noundef i64 %16(ptr noundef nonnull align 8 dereferenceable(48) %4)
  %18 = mul i64 %13, %17
  store i64 %18, ptr %3, align 8, !tbaa !8
  %19 = load i64, ptr %3, align 8, !tbaa !8
  %20 = call noundef i64 @_ZNK19OpenColorIO_v2_5dev6ArrayTIfE21getMaxColorComponentsEv(ptr noundef nonnull align 8 dereferenceable(48) %4)
  %21 = mul i64 %19, %20
  call void @llvm.lifetime.end.p0(i64 8, ptr %3) #3
  ret i64 %21
}