; Function Attrs: mustprogress uwtable
define hidden noundef i64 @_ZNK19OpenColorIO_v2_5dev11Lut3DOpData10Lut3DArray12getNumValuesEv(ptr noundef nonnull align 8 dereferenceable(48) %0) unnamed_addr #3 align 2 {
  %2 = load ptr, ptr %0, align 8, !tbaa !50
  %3 = getelementptr inbounds nuw i8, ptr %2, i64 32
  %4 = load ptr, ptr %3, align 8
  %5 = tail call noundef i64 %4(ptr noundef nonnull align 8 dereferenceable(48) %0)
  %6 = load ptr, ptr %0, align 8, !tbaa !50
  %7 = getelementptr inbounds nuw i8, ptr %6, i64 32
  %8 = load ptr, ptr %7, align 8
  %9 = tail call noundef i64 %8(ptr noundef nonnull align 8 dereferenceable(48) %0)
  %10 = load ptr, ptr %0, align 8, !tbaa !50
  %11 = getelementptr inbounds nuw i8, ptr %10, i64 32
  %12 = load ptr, ptr %11, align 8
  %13 = tail call noundef i64 %12(ptr noundef nonnull align 8 dereferenceable(48) %0)
  %14 = mul i64 %5, 3
  %15 = mul i64 %14, %9
  %16 = mul i64 %15, %13
  ret i64 %16
}